target datalayout = "e-m:e-p270:32:32-p271:32:32-p272:64:64-i64:64-i128:128-f80:128-n8:16:32:64-S128"
target triple = "x86_64-pc-linux-gnu"

%struct.MOVAtom = type { i32, i64 }
%struct.MOVContext = type { ptr, ptr, i32, i64, i32, i32, i32, i32, i32, i32, ptr, i32, ptr, ptr, i32, %struct.MOVFragment, ptr, i32, i32, i32, ptr, i32, i32, i32, i32, i32, i32, i32, i64, i32, i32, ptr, i32, i32, i32, i32, i32, %struct.MOVFragmentIndex, i32, i32, [20 x i8], [20 x i8], ptr, i32, ptr, i32, ptr, i32, ptr, i32, ptr, ptr, i32, i32, [3 x [3 x i32]], i32, i32, i32, i32, i32, ptr, i32, ptr, i32, i32, i64, i32 }
%struct.MOVFragment = type { i32, i32, i64, i64, i64, i32, i32, i32, i32 }
%struct.MOVFragmentIndex = type { i32, i32, i32, i32, ptr }
%struct.AVFormatContext = type { ptr, ptr, ptr, ptr, ptr, i32, i32, ptr, i32, ptr, i32, ptr, ptr, i64, i64, i64, i32, i32, i32, i64, i64, ptr, i32, i32, ptr, i32, i32, i32, i32, ptr, i64, i32, i32, %struct.AVIOInterruptCB, i32, i32, i32, i32, i64, i32, i32, i32, i32, i32, i32, i32, i32, i32, i32, i32, i32, i64, i32, i32, i32, i32, i32, ptr, ptr, ptr, ptr, i32, ptr, ptr, ptr, ptr, i32, ptr, ptr, i64, ptr, ptr, ptr, i64 }
%struct.AVIOInterruptCB = type { ptr, ptr }

@.str.221 = private unnamed_addr constant [51 x i8] c"Unsupported 'chnl' box with version %d, flags: %#x\00", align 1
@.str.222 = private unnamed_addr constant [44 x i8] c"skip %ld bytes of unknown data inside chnl\0A\00", align 1

; Function Attrs: alwaysinline nounwind uwtable
define internal i64 @av_sat_add64_c(i64 noundef %0, i64 noundef %1) #5 {
  %3 = alloca i64, align 8
  %4 = alloca i64, align 8
  %5 = alloca i64, align 8
  store i64 %0, ptr %3, align 8, !tbaa !59
  store i64 %1, ptr %4, align 8, !tbaa !59
  call void @llvm.lifetime.start.p0(i64 8, ptr %5) #14
  %6 = load i64, ptr %3, align 8, !tbaa !59
  %7 = load i64, ptr %4, align 8, !tbaa !59
  %8 = call { i64, i1 } @llvm.sadd.with.overflow.i64(i64 %6, i64 %7)
  %9 = extractvalue { i64, i1 } %8, 1
  %10 = extractvalue { i64, i1 } %8, 0
  store i64 %10, ptr %5, align 8
  br i1 %9, label %13, label %11

11:                                               ; preds = %2
  %12 = load i64, ptr %5, align 8, !tbaa !59
  br label %17

13:                                               ; preds = %2
  %14 = load i64, ptr %5, align 8, !tbaa !59
  %15 = icmp slt i64 %14, 0
  %16 = select i1 %15, i64 9223372036854775807, i64 -9223372036854775808
  br label %17

17:                                               ; preds = %13, %11
  %18 = phi i64 [ %12, %11 ], [ %16, %13 ]
  call void @llvm.lifetime.end.p0(i64 8, ptr %5) #14
  ret i64 %18
}

; Function Attrs: alwaysinline nounwind uwtable
define internal i64 @avio_tell(ptr noundef %0) #5 {
  %2 = alloca ptr, align 8
  store ptr %0, ptr %2, align 8, !tbaa !9
  %3 = load ptr, ptr %2, align 8, !tbaa !9
  %4 = call i64 @avio_seek(ptr noundef %3, i64 noundef 0, i32 noundef 1)
  ret i64 %4
}

; Function Attrs: nounwind uwtable
define internal i32 @mov_read_chnl(ptr noundef %0, ptr noundef %1, i32 %2, i64 %3) #0 {
  %5 = alloca i32, align 4
  %6 = alloca %struct.MOVAtom, align 8
  %7 = alloca ptr, align 8
  %8 = alloca ptr, align 8
  %9 = alloca i64, align 8
  %10 = alloca i32, align 4
  %11 = alloca i32, align 4
  %12 = alloca i32, align 4
  %13 = alloca ptr, align 8
  %14 = alloca i32, align 4
  %15 = getelementptr inbounds nuw { i32, i64 }, ptr %6, i32 0, i32 0
  store i32 %2, ptr %15, align 8
  %16 = getelementptr inbounds nuw { i32, i64 }, ptr %6, i32 0, i32 1
  store i64 %3, ptr %16, align 8
  store ptr %0, ptr %7, align 8, !tbaa !4
  store ptr %1, ptr %8, align 8, !tbaa !9
  call void @llvm.lifetime.start.p0(i64 8, ptr %9) #14
  %17 = load ptr, ptr %8, align 8, !tbaa !9
  %18 = call i64 @avio_tell(ptr noundef %17)
  %19 = getelementptr inbounds nuw %struct.MOVAtom, ptr %6, i32 0, i32 1
  %20 = load i64, ptr %19, align 8, !tbaa !58
  %21 = call i64 @av_sat_add64_c(i64 noundef %18, i64 noundef %20)
  store i64 %21, ptr %9, align 8, !tbaa !59
  call void @llvm.lifetime.start.p0(i64 4, ptr %10) #14
  call void @llvm.lifetime.start.p0(i64 4, ptr %11) #14
  call void @llvm.lifetime.start.p0(i64 4, ptr %12) #14
  call void @llvm.lifetime.start.p0(i64 8, ptr %13) #14
  %22 = load ptr, ptr %7, align 8, !tbaa !4
  %23 = getelementptr inbounds nuw %struct.MOVContext, ptr %22, i32 0, i32 1
  %24 = load ptr, ptr %23, align 8, !tbaa !13
  %25 = getelementptr inbounds nuw %struct.AVFormatContext, ptr %24, i32 0, i32 6
  %26 = load i32, ptr %25, align 4, !tbaa !30
  %27 = icmp ult i32 %26, 1
  br i1 %27, label %28, label %29

28:                                               ; preds = %4
  store i32 0, ptr %5, align 4
  store i32 1, ptr %14, align 4
  br label %88

29:                                               ; preds = %4
  %30 = load ptr, ptr %7, align 8, !tbaa !4
  %31 = getelementptr inbounds nuw %struct.MOVContext, ptr %30, i32 0, i32 1
  %32 = load ptr, ptr %31, align 8, !tbaa !13
  %33 = getelementptr inbounds nuw %struct.AVFormatContext, ptr %32, i32 0, i32 7
  %34 = load ptr, ptr %33, align 8, !tbaa !41
  %35 = load ptr, ptr %7, align 8, !tbaa !4
  %36 = getelementptr inbounds nuw %struct.MOVContext, ptr %35, i32 0, i32 1
  %37 = load ptr, ptr %36, align 8, !tbaa !13
  %38 = getelementptr inbounds nuw %struct.AVFormatContext, ptr %37, i32 0, i32 6
  %39 = load i32, ptr %38, align 4, !tbaa !30
  %40 = sub i32 %39, 1
  %41 = zext i32 %40 to i64
  %42 = getelementptr inbounds nuw ptr, ptr %34, i64 %41
  %43 = load ptr, ptr %42, align 8, !tbaa !42
  store ptr %43, ptr %13, align 8, !tbaa !42
  %44 = load ptr, ptr %8, align 8, !tbaa !9
  %45 = call i32 @avio_r8(ptr noundef %44)
  store i32 %45, ptr %10, align 4, !tbaa !11
  %46 = load ptr, ptr %8, align 8, !tbaa !9
  %47 = call i32 @avio_rb24(ptr noundef %46)
  store i32 %47, ptr %11, align 4, !tbaa !11
  %48 = load i32, ptr %10, align 4, !tbaa !11
  %49 = icmp ne i32 %48, 0
  br i1 %49, label %53, label %50

50:                                               ; preds = %29
  %51 = load i32, ptr %11, align 4, !tbaa !11
  %52 = icmp ne i32 %51, 0
  br i1 %52, label %53, label %59

53:                                               ; preds = %50, %29
  %54 = load ptr, ptr %7, align 8, !tbaa !4
  %55 = getelementptr inbounds nuw %struct.MOVContext, ptr %54, i32 0, i32 1
  %56 = load ptr, ptr %55, align 8, !tbaa !13
  %57 = load i32, ptr %10, align 4, !tbaa !11
  %58 = load i32, ptr %11, align 4, !tbaa !11
  call void (ptr, i32, ptr, ...) @av_log(ptr noundef %56, i32 noundef 16, ptr noundef @.str.221, i32 noundef %57, i32 noundef %58)
  store i32 -1094995529, ptr %5, align 4
  store i32 1, ptr %14, align 4
  br label %88

59:                                               ; preds = %50
  %60 = load ptr, ptr %7, align 8, !tbaa !4
  %61 = getelementptr inbounds nuw %struct.MOVContext, ptr %60, i32 0, i32 1
  %62 = load ptr, ptr %61, align 8, !tbaa !13
  %63 = load ptr, ptr %8, align 8, !tbaa !9
  %64 = load ptr, ptr %13, align 8, !tbaa !42
  %65 = call i32 @ff_mov_read_chnl(ptr noundef %62, ptr noundef %63, ptr noundef %64)
  store i32 %65, ptr %12, align 4, !tbaa !11
  %66 = load i32, ptr %12, align 4, !tbaa !11
  %67 = icmp slt i32 %66, 0
  br i1 %67, label %68, label %70

68:                                               ; preds = %59
  %69 = load i32, ptr %12, align 4, !tbaa !11
  store i32 %69, ptr %5, align 4
  store i32 1, ptr %14, align 4
  br label %88

70:                                               ; preds = %59
  %71 = load ptr, ptr %8, align 8, !tbaa !9
  %72 = call i64 @avio_tell(ptr noundef %71)
  %73 = load i64, ptr %9, align 8, !tbaa !59
  %74 = icmp ne i64 %72, %73
  br i1 %74, label %75, label %86

75:                                               ; preds = %70
  %76 = load ptr, ptr %7, align 8, !tbaa !4
  %77 = getelementptr inbounds nuw %struct.MOVContext, ptr %76, i32 0, i32 1
  %78 = load ptr, ptr %77, align 8, !tbaa !13
  %79 = load i64, ptr %9, align 8, !tbaa !59
  %80 = load ptr, ptr %8, align 8, !tbaa !9
  %81 = call i64 @avio_tell(ptr noundef %80)
  %82 = sub nsw i64 %79, %81
  call void (ptr, i32, ptr, ...) @av_log(ptr noundef %78, i32 noundef 24, ptr noundef @.str.222, i64 noundef %82)
  %83 = load ptr, ptr %8, align 8, !tbaa !9
  %84 = load i64, ptr %9, align 8, !tbaa !59
  %85 = call i64 @avio_seek(ptr noundef %83, i64 noundef %84, i32 noundef 0)
  br label %86

86:                                               ; preds = %75, %70
  %87 = load i32, ptr %12, align 4, !tbaa !11
  store i32 %87, ptr %5, align 4
  store i32 1, ptr %14, align 4
  br label %88

88:                                               ; preds = %86, %68, %53, %28
  call void @llvm.lifetime.end.p0(i64 8, ptr %13) #14
  call void @llvm.lifetime.end.p0(i64 4, ptr %12) #14
  call void @llvm.lifetime.end.p0(i64 4, ptr %11) #14
  call void @llvm.lifetime.end.p0(i64 4, ptr %10) #14
  call void @llvm.lifetime.end.p0(i64 8, ptr %9) #14
  %89 = load i32, ptr %5, align 4
  ret i32 %89
}