; Function Attrs: nounwind uwtable
define internal i32 @mov_read_chnl(ptr noundef readonly captures(none) %0, ptr noundef %1, i32 %2, i64 %3) #0 {
  %5 = tail call i64 @avio_seek(ptr noundef %1, i64 noundef 0, i32 noundef 1) #16
  %6 = tail call { i64, i1 } @llvm.sadd.with.overflow.i64(i64 %5, i64 %3)
  %7 = extractvalue { i64, i1 } %6, 1
  %8 = extractvalue { i64, i1 } %6, 0
  %9 = icmp slt i64 %8, 0
  %10 = select i1 %9, i64 9223372036854775807, i64 -9223372036854775808
  %11 = select i1 %7, i64 %10, i64 %8
  %12 = getelementptr inbounds nuw i8, ptr %0, i64 8
  %13 = load ptr, ptr %12, align 8, !tbaa !4
  %14 = getelementptr inbounds nuw i8, ptr %13, i64 44
  %15 = load i32, ptr %14, align 4, !tbaa !25
  %16 = icmp eq i32 %15, 0
  br i1 %16, label %40, label %17

17:                                               ; preds = %4
  %18 = getelementptr inbounds nuw i8, ptr %13, i64 48
  %19 = load ptr, ptr %18, align 8, !tbaa !37
  %20 = add i32 %15, -1
  %21 = zext i32 %20 to i64
  %22 = getelementptr inbounds nuw ptr, ptr %19, i64 %21
  %23 = load ptr, ptr %22, align 8, !tbaa !38
  %24 = tail call i32 @avio_r8(ptr noundef %1) #16
  %25 = tail call i32 @avio_rb24(ptr noundef %1) #16
  %26 = icmp ne i32 %24, 0
  %27 = icmp ne i32 %25, 0
  %or.cond = select i1 %26, i1 true, i1 %27
  %28 = load ptr, ptr %12, align 8, !tbaa !4
  br i1 %or.cond, label %29, label %30

29:                                               ; preds = %17
  tail call void (ptr, i32, ptr, ...) @av_log(ptr noundef %28, i32 noundef 16, ptr noundef nonnull @.str.221, i32 noundef %24, i32 noundef %25) #16
  br label %40

30:                                               ; preds = %17
  %31 = tail call i32 @ff_mov_read_chnl(ptr noundef %28, ptr noundef %1, ptr noundef %23) #16
  %32 = icmp slt i32 %31, 0
  br i1 %32, label %40, label %33

33:                                               ; preds = %30
  %34 = tail call i64 @avio_seek(ptr noundef %1, i64 noundef 0, i32 noundef 1) #16
  %.not = icmp eq i64 %34, %11
  br i1 %.not, label %40, label %35

35:                                               ; preds = %33
  %36 = load ptr, ptr %12, align 8, !tbaa !4
  %37 = tail call i64 @avio_seek(ptr noundef %1, i64 noundef 0, i32 noundef 1) #16
  %38 = sub nsw i64 %11, %37
  tail call void (ptr, i32, ptr, ...) @av_log(ptr noundef %36, i32 noundef 24, ptr noundef nonnull @.str.222, i64 noundef %38) #16
  %39 = tail call i64 @avio_seek(ptr noundef %1, i64 noundef %11, i32 noundef 0) #16
  br label %40

40:                                               ; preds = %33, %35, %30, %4, %29
  %.0 = phi i32 [ -1094995529, %29 ], [ 0, %4 ], [ %31, %30 ], [ %31, %35 ], [ %31, %33 ]
  ret i32 %.0
}